Certificate:
    Data:
        Version: 3 (0x2)
        Serial Number: 4097 (0x1001)
    Signature Algorithm: sha256WithRSAEncryption
        Issuer: C=AU, ST=Some-State, O=Internet Widgits Pty Ltd
        Validity
            Not Before: Mar  2 11:16:47 2021 GMT
            Not After : Mar  2 11:16:47 2022 GMT
        Subject: C=AU, ST=Some-State, O=Internet Widgits Pty Ltd, CN=iras.gov.sg
        Subject Public Key Info:
            Public Key Algorithm: rsaEncryption
                Public-Key: (1024 bit)
                Modulus:
                    00:bf:85:a7:b4:f6:b6:83:2d:51:4e:ad:3a:bb:43:
                    b3:1e:40:9e:00:48:ca:50:db:f1:c0:5e:2a:84:ed:
                    d2:8d:2c:1b:9b:e6:b2:1b:bb:8f:09:0b:8f:93:a0:
                    9f:2e:96:dd:bf:0f:87:4b:85:eb:39:62:8c:82:10:
                    42:68:bd:e6:f2:31:f1:b1:b6:da:77:82:22:ba:1f:
                    27:f8:ae:79:d5:dc:11:63:e9:0f:7b:b2:44:07:36:
                    d6:11:0f:98:27:f4:57:40:fe:bd:79:54:94:f5:60:
                    be:4e:44:aa:71:9d:e7:70:98:64:c0:8c:dc:0e:7e:
                    67:d6:9c:dd:98:5c:99:aa:03
                Exponent: 65537 (0x10001)
        X509v3 extensions:
            X509v3 Basic Constraints: 
                CA:FALSE
            Netscape Comment: 
                OpenSSL Generated Certificate
            X509v3 Subject Key Identifier: 
                4F:9D:C4:B9:2F:6E:1F:2F:E5:6F:BF:E5:8B:E8:FA:DE:A0:D2:01:EF
            X509v3 Authority Key Identifier: 
                keyid:97:BC:15:2F:F6:4D:4C:C3:B9:73:E0:EB:A7:2A:AF:4D:F9:AE:7C:D8

    Signature Algorithm: sha256WithRSAEncryption
         4a:4f:ab:8b:11:63:66:c8:81:a1:b5:7b:a1:be:bc:55:6a:ec:
         a6:15:18:a8:3e:42:d3:66:60:09:6d:36:6a:fb:23:0d:d9:e4:
         26:05:9d:d3:68:6f:98:f5:12:1e:08:6d:9b:3f:a8:e8:67:f3:
         f8:7d:02:4c:76:af:67:d2:fe:12:6c:ae:37:2d:99:84:fa:3d:
         10:15:da:b5:be:ae:84:77:7b:fc:d9:fc:0a:90:c2:d7:01:44:
         c2:33:45:06:9c:97:e6:fe:2b:24:f2:ec:9a:0a:d7:45:d8:91:
         24:3c:89:ff:25:1e:7b:e5:c5:3e:a7:b4:c3:97:66:38:bc:8a:
         f4:cf:76:a2:f0:1c:0f:97:7b:cd:01:6b:4f:f5:5d:9b:5e:b4:
         aa:5e:82:c9:9e:b4:7b:e2:78:73:21:c1:b7:f2:5a:8c:47:90:
         af:6e:5b:e3:64:a6:13:d0:66:07:35:c9:78:5b:4b:87:4d:c2:
         88:86:d7:35:6c:db:eb:95:26:db:7d:39:28:00:c0:65:db:01:
         94:5f:99:7f:99:08:f0:08:7f:c7:e6:3d:28:43:32:1f:14:28:
         bd:4c:a6:90:65:a6:c5:20:c4:2e:1d:c5:34:30:d2:42:4d:e9:
         cd:00:23:e4:76:ae:c2:f3:f3:af:04:48:7b:61:85:87:32:0a:
         35:97:9c:94
-----BEGIN CERTIFICATE-----
MIIDEzCCAfugAwIBAgICEAEwDQYJKoZIhvcNAQELBQAwRTELMAkGA1UEBhMCQVUx
EzARBgNVBAgMClNvbWUtU3RhdGUxITAfBgNVBAoMGEludGVybmV0IFdpZGdpdHMg
UHR5IEx0ZDAeFw0yMTAzMDIxMTE2NDdaFw0yMjAzMDIxMTE2NDdaMFsxCzAJBgNV
BAYTAkFVMRMwEQYDVQQIDApTb21lLVN0YXRlMSEwHwYDVQQKDBhJbnRlcm5ldCBX
aWRnaXRzIFB0eSBMdGQxFDASBgNVBAMMC2lyYXMuZ292LnNnMIGfMA0GCSqGSIb3
DQEBAQUAA4GNADCBiQKBgQC/hae09raDLVFOrTq7Q7MeQJ4ASMpQ2/HAXiqE7dKN
LBub5rIbu48JC4+ToJ8ult2/D4dLhes5YoyCEEJovebyMfGxttp3giK6Hyf4rnnV
3BFj6Q97skQHNtYRD5gn9FdA/r15VJT1YL5ORKpxnedwmGTAjNwOfmfWnN2YXJmq
AwIDAQABo3sweTAJBgNVHRMEAjAAMCwGCWCGSAGG+EIBDQQfFh1PcGVuU1NMIEdl
bmVyYXRlZCBDZXJ0aWZpY2F0ZTAdBgNVHQ4EFgQUT53EuS9uHy/lb7/li+j63qDS
Ae8wHwYDVR0jBBgwFoAUl7wVL/ZNTMO5c+DrpyqvTfmufNgwDQYJKoZIhvcNAQEL
BQADggEBAEpPq4sRY2bIgaG1e6G+vFVq7KYVGKg+QtNmYAltNmr7Iw3Z5CYFndNo
b5j1Eh4IbZs/qOhn8/h9Akx2r2fS/hJsrjctmYT6PRAV2rW+roR3e/zZ/AqQwtcB
RMIzRQacl+b+KyTy7JoK10XYkSQ8if8lHnvlxT6ntMOXZji8ivTPdqLwHA+Xe80B
a0/1XZtetKpegsmetHvieHMhwbfyWoxHkK9uW+NkphPQZgc1yXhbS4dNwoiG1zVs
2+uVJtt9OSgAwGXbAZRfmX+ZCPAIf8fmPShDMh8UKL1MppBlpsUgxC4dxTQw0kJN
6c0AI+R2rsLz868ESHthhYcyCjWXnJQ=
-----END CERTIFICATE-----
