Certificate:
    Data:
        Version: 3 (0x2)
        Serial Number: 4096 (0x1000)
    Signature Algorithm: sha256WithRSAEncryption
        Issuer: C=AU, ST=Some-State, O=Internet Widgits Pty Ltd
        Validity
            Not Before: Feb 27 16:49:18 2021 GMT
            Not After : Feb 27 16:49:18 2022 GMT
        Subject: C=AU, ST=Some-State, O=Internet Widgits Pty Ltd, CN=seedpkilab2020.com
        Subject Public Key Info:
            Public Key Algorithm: rsaEncryption
                Public-Key: (1024 bit)
                Modulus:
                    00:9f:ca:0f:26:af:38:79:6e:a5:cc:d3:90:26:e3:
                    2d:73:d7:fb:1e:30:e9:c2:5b:26:f7:74:83:83:b6:
                    32:ea:b1:d3:a0:8e:61:63:43:58:ae:cb:19:b2:a6:
                    5f:26:e5:5b:9a:fd:17:e7:f4:bc:0c:e8:9b:80:7f:
                    f0:ae:7b:4f:8a:d9:8a:18:48:ab:37:ec:a9:b4:86:
                    13:81:c8:a5:e6:61:75:98:75:b3:dc:bb:84:7c:d8:
                    04:ac:01:c8:2e:72:98:50:00:51:bb:d8:f1:a8:82:
                    96:1b:44:a7:39:4f:58:72:6e:b2:9f:a7:c1:e8:08:
                    54:9f:32:28:fa:a7:14:47:c7
                Exponent: 65537 (0x10001)
        X509v3 extensions:
            X509v3 Basic Constraints: 
                CA:FALSE
            Netscape Comment: 
                OpenSSL Generated Certificate
            X509v3 Subject Key Identifier: 
                B3:FC:93:A4:5E:85:7E:BC:8A:8C:E7:34:1B:C1:C1:53:46:0F:87:AE
            X509v3 Authority Key Identifier: 
                keyid:97:BC:15:2F:F6:4D:4C:C3:B9:73:E0:EB:A7:2A:AF:4D:F9:AE:7C:D8

    Signature Algorithm: sha256WithRSAEncryption
         38:82:9c:41:07:1a:a0:67:ab:e3:c2:43:ff:e2:a8:cf:ea:33:
         84:47:db:d0:17:08:2e:f0:22:e6:89:31:a4:23:4f:c1:8b:f2:
         42:fb:e7:13:98:d9:ed:25:d9:63:c8:52:67:67:76:34:82:f6:
         06:3a:ac:a4:26:e1:dd:b4:e4:85:e7:2a:77:a3:46:78:27:de:
         41:6c:63:f0:73:df:c5:a3:6a:3d:5b:cf:4a:b0:cd:9a:fb:ca:
         96:51:4d:2d:2f:13:22:7b:d3:ee:7c:d1:51:fd:01:09:23:b7:
         22:4d:da:89:b0:93:c9:32:13:1d:2c:33:c7:9b:f0:3f:92:18:
         e4:6b:74:90:7a:d7:9c:23:41:cb:88:65:61:2f:74:27:d4:78:
         1c:d2:03:89:24:91:8c:60:58:4a:0b:0e:23:fe:2c:be:78:be:
         d2:f5:f9:b0:6e:b5:c2:6b:08:8f:66:06:ed:a2:0c:a4:a6:12:
         85:be:01:69:f9:8d:f1:ac:fc:70:4c:f8:8d:af:09:87:67:6b:
         a7:85:c4:a8:d2:95:3d:b9:42:23:23:ab:78:7a:fb:23:77:93:
         7e:e6:72:04:ec:36:ab:e9:b5:d9:c9:1e:02:2b:69:49:d7:eb:
         be:b2:ca:b4:83:de:ec:eb:25:df:18:c4:72:e5:43:ca:b3:c1:
         39:fd:c7:20
-----BEGIN CERTIFICATE-----
MIIDGjCCAgKgAwIBAgICEAAwDQYJKoZIhvcNAQELBQAwRTELMAkGA1UEBhMCQVUx
EzARBgNVBAgMClNvbWUtU3RhdGUxITAfBgNVBAoMGEludGVybmV0IFdpZGdpdHMg
UHR5IEx0ZDAeFw0yMTAyMjcxNjQ5MThaFw0yMjAyMjcxNjQ5MThaMGIxCzAJBgNV
BAYTAkFVMRMwEQYDVQQIDApTb21lLVN0YXRlMSEwHwYDVQQKDBhJbnRlcm5ldCBX
aWRnaXRzIFB0eSBMdGQxGzAZBgNVBAMMEnNlZWRwa2lsYWIyMDIwLmNvbTCBnzAN
BgkqhkiG9w0BAQEFAAOBjQAwgYkCgYEAn8oPJq84eW6lzNOQJuMtc9f7HjDpwlsm
93SDg7Yy6rHToI5hY0NYrssZsqZfJuVbmv0X5/S8DOibgH/wrntPitmKGEirN+yp
tIYTgcil5mF1mHWz3LuEfNgErAHILnKYUABRu9jxqIKWG0SnOU9Ycm6yn6fB6AhU
nzIo+qcUR8cCAwEAAaN7MHkwCQYDVR0TBAIwADAsBglghkgBhvhCAQ0EHxYdT3Bl
blNTTCBHZW5lcmF0ZWQgQ2VydGlmaWNhdGUwHQYDVR0OBBYEFLP8k6RehX68iozn
NBvBwVNGD4euMB8GA1UdIwQYMBaAFJe8FS/2TUzDuXPg66cqr035rnzYMA0GCSqG
SIb3DQEBCwUAA4IBAQA4gpxBBxqgZ6vjwkP/4qjP6jOER9vQFwgu8CLmiTGkI0/B
i/JC++cTmNntJdljyFJnZ3Y0gvYGOqykJuHdtOSF5yp3o0Z4J95BbGPwc9/Fo2o9
W89KsM2a+8qWUU0tLxMie9PufNFR/QEJI7ciTdqJsJPJMhMdLDPHm/A/khjka3SQ
etecI0HLiGVhL3Qn1Hgc0gOJJJGMYFhKCw4j/iy+eL7S9fmwbrXCawiPZgbtogyk
phKFvgFp+Y3xrPxwTPiNrwmHZ2unhcSo0pU9uUIjI6t4evsjd5N+5nIE7Dar6bXZ
yR4CK2lJ1+u+ssq0g97s6yXfGMRy5UPKs8E5/ccg
-----END CERTIFICATE-----
